; Function Attrs: nounwind uwtable
define ptr @l___private_Lean_Meta_Tactic_Grind_Arith_Cutsat_EqCnstr_0__Lean_Meta_Grind_Arith_Cutsat_isForbiddenParent___lambda__3___boxed(ptr noundef %0, ptr noundef %1, ptr noundef %2) local_unnamed_addr #1 {
  %4 = ptrtoint ptr %0 to i64
  %5 = lshr i64 %4, 1
  %6 = trunc i64 %5 to i8
  %7 = and i64 %4, 1
  %.not = icmp eq i64 %7, 0
  br i1 %.not, label %8, label %lean_dec.exit8

8:                                                ; preds = %3
  %9 = load i32, ptr %0, align 4, !tbaa !4
  %10 = icmp sgt i32 %9, 1
  br i1 %10, label %11, label %13, !prof !11

11:                                               ; preds = %8
  %12 = add nsw i32 %9, -1
  store i32 %12, ptr %0, align 4, !tbaa !4
  br label %lean_dec.exit8

13:                                               ; preds = %8
  %.not.i = icmp eq i32 %9, 0
  br i1 %.not.i, label %lean_dec.exit8, label %14

14:                                               ; preds = %13
  tail call void @lean_dec_ref_cold(ptr noundef nonnull %0) #7
  br label %lean_dec.exit8

lean_dec.exit8:                                   ; preds = %14, %13, %11, %3
  %switch = icmp ult i8 %6, 3
  br i1 %switch, label %lean_dec.exit.sink.split.i, label %l___private_Lean_Meta_Tactic_Grind_Arith_Cutsat_EqCnstr_0__Lean_Meta_Grind_Arith_Cutsat_isForbiddenParent___lambda__3.exit

lean_dec.exit.sink.split.i:                       ; preds = %lean_dec.exit8
  %15 = tail call ptr @l___private_Lean_Meta_Tactic_Grind_Arith_Cutsat_EqCnstr_0__Lean_Meta_Grind_Arith_Cutsat_isForbiddenParent___lambda__2(i8 noundef zeroext %6, ptr noundef %1, ptr nonnull poison)
  br label %l___private_Lean_Meta_Tactic_Grind_Arith_Cutsat_EqCnstr_0__Lean_Meta_Grind_Arith_Cutsat_isForbiddenParent___lambda__3.exit

l___private_Lean_Meta_Tactic_Grind_Arith_Cutsat_EqCnstr_0__Lean_Meta_Grind_Arith_Cutsat_isForbiddenParent___lambda__3.exit: ; preds = %lean_dec.exit8, %lean_dec.exit.sink.split.i
  %.0.i = phi ptr [ inttoptr (i64 1 to ptr), %lean_dec.exit8 ], [ %15, %lean_dec.exit.sink.split.i ]
  %16 = ptrtoint ptr %2 to i64
  %17 = and i64 %16, 1
  %.not13 = icmp eq i64 %17, 0
  br i1 %.not13, label %18, label %lean_dec.exit7

18:                                               ; preds = %l___private_Lean_Meta_Tactic_Grind_Arith_Cutsat_EqCnstr_0__Lean_Meta_Grind_Arith_Cutsat_isForbiddenParent___lambda__3.exit
  %19 = load i32, ptr %2, align 4, !tbaa !4
  %20 = icmp sgt i32 %19, 1
  br i1 %20, label %21, label %23, !prof !11

21:                                               ; preds = %18
  %22 = add nsw i32 %19, -1
  store i32 %22, ptr %2, align 4, !tbaa !4
  br label %lean_dec.exit7

23:                                               ; preds = %18
  %.not.i9 = icmp eq i32 %19, 0
  br i1 %.not.i9, label %lean_dec.exit7, label %24

24:                                               ; preds = %23
  tail call void @lean_dec_ref_cold(ptr noundef nonnull %2) #7
  br label %lean_dec.exit7

lean_dec.exit7:                                   ; preds = %24, %23, %21, %l___private_Lean_Meta_Tactic_Grind_Arith_Cutsat_EqCnstr_0__Lean_Meta_Grind_Arith_Cutsat_isForbiddenParent___lambda__3.exit
  %25 = ptrtoint ptr %1 to i64
  %26 = and i64 %25, 1
  %.not14 = icmp eq i64 %26, 0
  br i1 %.not14, label %27, label %lean_dec.exit

27:                                               ; preds = %lean_dec.exit7
  %28 = load i32, ptr %1, align 4, !tbaa !4
  %29 = icmp sgt i32 %28, 1
  br i1 %29, label %30, label %32, !prof !11

30:                                               ; preds = %27
  %31 = add nsw i32 %28, -1
  store i32 %31, ptr %1, align 4, !tbaa !4
  br label %lean_dec.exit

32:                                               ; preds = %27
  %.not.i11 = icmp eq i32 %28, 0
  br i1 %.not.i11, label %lean_dec.exit, label %33

33:                                               ; preds = %32
  tail call void @lean_dec_ref_cold(ptr noundef nonnull %1) #7
  br label %lean_dec.exit

lean_dec.exit:                                    ; preds = %33, %32, %30, %lean_dec.exit7
  ret ptr %.0.i
}